; ModuleID = '7/123.c'
source_filename = "7/123.c"
target datalayout = "e-m:e-p270:32:32-p271:32:32-p272:64:64-i64:64-f80:128-n8:16:32:64-S128"
target triple = "x86_64-pc-linux-gnu"

@.str = private unnamed_addr constant [4 x i8] c"%s\0A\00", align 1

; Function Attrs: noinline nounwind uwtable
define dso_local void @main() #0 {
  %1 = alloca [100 x i8], align 16
  %2 = alloca [100 x i8], align 16
  %3 = alloca [100 x i8], align 16
  %4 = alloca i32, align 4
  %5 = alloca i32, align 4
  %6 = alloca i32, align 4
  %7 = alloca i32, align 4
  %8 = alloca i32, align 4
  %9 = alloca i32, align 4
  %10 = alloca i32, align 4
  %11 = alloca i32, align 4
  %12 = alloca i32, align 4
  store i32 0, i32* %10, align 4
  %13 = getelementptr inbounds [100 x i8], [100 x i8]* %1, i64 0, i64 0
  %14 = call i32 (i8*, ...) bitcast (i32 (...)* @gets to i32 (i8*, ...)*)(i8* %13)
  %15 = getelementptr inbounds [100 x i8], [100 x i8]* %2, i64 0, i64 0
  %16 = call i32 (i8*, ...) bitcast (i32 (...)* @gets to i32 (i8*, ...)*)(i8* %15)
  %17 = getelementptr inbounds [100 x i8], [100 x i8]* %3, i64 0, i64 0
  %18 = call i32 (i8*, ...) bitcast (i32 (...)* @gets to i32 (i8*, ...)*)(i8* %17)
  %19 = getelementptr inbounds [100 x i8], [100 x i8]* %1, i64 0, i64 0
  %20 = call i64 @strlen(i8* %19) #3
  %21 = trunc i64 %20 to i32
  store i32 %21, i32* %4, align 4
  %22 = getelementptr inbounds [100 x i8], [100 x i8]* %2, i64 0, i64 0
  %23 = call i64 @strlen(i8* %22) #3
  %24 = trunc i64 %23 to i32
  store i32 %24, i32* %5, align 4
  store i32 0, i32* %7, align 4
  br label %25

25:                                               ; preds = %85, %0
  %26 = load i32, i32* %7, align 4
  %27 = load i32, i32* %4, align 4
  %28 = icmp slt i32 %26, %27
  br i1 %28, label %29, label %88

29:                                               ; preds = %25
  %30 = load i32, i32* %7, align 4
  store i32 %30, i32* %11, align 4
  store i32 0, i32* %8, align 4
  br label %31

31:                                               ; preds = %49, %29
  %32 = load i32, i32* %11, align 4
  %33 = sext i32 %32 to i64
  %34 = getelementptr inbounds [100 x i8], [100 x i8]* %1, i64 0, i64 %33
  %35 = load i8, i8* %34, align 1
  %36 = sext i8 %35 to i32
  %37 = load i32, i32* %8, align 4
  %38 = sext i32 %37 to i64
  %39 = getelementptr inbounds [100 x i8], [100 x i8]* %2, i64 0, i64 %38
  %40 = load i8, i8* %39, align 1
  %41 = sext i8 %40 to i32
  %42 = icmp eq i32 %36, %41
  br i1 %42, label %43, label %47

43:                                               ; preds = %31
  %44 = load i32, i32* %8, align 4
  %45 = load i32, i32* %5, align 4
  %46 = icmp slt i32 %44, %45
  br label %47

47:                                               ; preds = %43, %31
  %48 = phi i1 [ false, %31 ], [ %46, %43 ]
  br i1 %48, label %49, label %54

49:                                               ; preds = %47
  %50 = load i32, i32* %11, align 4
  %51 = add nsw i32 %50, 1
  store i32 %51, i32* %11, align 4
  %52 = load i32, i32* %8, align 4
  %53 = add nsw i32 %52, 1
  store i32 %53, i32* %8, align 4
  br label %31

54:                                               ; preds = %47
  %55 = load i32, i32* %8, align 4
  %56 = load i32, i32* %5, align 4
  %57 = icmp eq i32 %55, %56
  br i1 %57, label %58, label %80

58:                                               ; preds = %54
  %59 = load i32, i32* %7, align 4
  store i32 %59, i32* %9, align 4
  br label %60

60:                                               ; preds = %76, %58
  %61 = load i32, i32* %9, align 4
  %62 = load i32, i32* %7, align 4
  %63 = load i32, i32* %5, align 4
  %64 = add nsw i32 %62, %63
  %65 = icmp slt i32 %61, %64
  br i1 %65, label %66, label %79

66:                                               ; preds = %60
  %67 = load i32, i32* %10, align 4
  %68 = sext i32 %67 to i64
  %69 = getelementptr inbounds [100 x i8], [100 x i8]* %3, i64 0, i64 %68
  %70 = load i8, i8* %69, align 1
  %71 = load i32, i32* %9, align 4
  %72 = sext i32 %71 to i64
  %73 = getelementptr inbounds [100 x i8], [100 x i8]* %1, i64 0, i64 %72
  store i8 %70, i8* %73, align 1
  %74 = load i32, i32* %10, align 4
  %75 = add nsw i32 %74, 1
  store i32 %75, i32* %10, align 4
  store i32 1, i32* %12, align 4
  br label %76

76:                                               ; preds = %66
  %77 = load i32, i32* %9, align 4
  %78 = add nsw i32 %77, 1
  store i32 %78, i32* %9, align 4
  br label %60

79:                                               ; preds = %60
  br label %80

80:                                               ; preds = %79, %54
  %81 = load i32, i32* %12, align 4
  %82 = icmp eq i32 %81, 1
  br i1 %82, label %83, label %84

83:                                               ; preds = %80
  br label %88

84:                                               ; preds = %80
  br label %85

85:                                               ; preds = %84
  %86 = load i32, i32* %7, align 4
  %87 = add nsw i32 %86, 1
  store i32 %87, i32* %7, align 4
  br label %25

88:                                               ; preds = %83, %25
  %89 = getelementptr inbounds [100 x i8], [100 x i8]* %1, i64 0, i64 0
  %90 = call i32 (i8*, ...) @printf(i8* getelementptr inbounds ([4 x i8], [4 x i8]* @.str, i64 0, i64 0), i8* %89)
  ret void
}

declare dso_local i32 @gets(...) #1

; Function Attrs: nounwind readonly
declare dso_local i64 @strlen(i8*) #2

declare dso_local i32 @printf(i8*, ...) #1


!llvm.module.flags = !{!0}
!llvm.ident = !{!1}

!0 = !{i32 1, !"wchar_size", i32 4}
!1 = !{!"clang version 10.0.0-4ubuntu1 "}
